opt subtitle "HI-TECH Software Omniscient Code Generator (Lite mode) build 10920"

opt pagewidth 120

	opt lm

	processor	16F877A
clrc	macro
	bcf	3,0
	endm
clrz	macro
	bcf	3,2
	endm
setc	macro
	bsf	3,0
	endm
setz	macro
	bsf	3,2
	endm
skipc	macro
	btfss	3,0
	endm
skipz	macro
	btfss	3,2
	endm
skipnc	macro
	btfsc	3,0
	endm
skipnz	macro
	btfsc	3,2
	endm
indf	equ	0
indf0	equ	0
pc	equ	2
pcl	equ	2
status	equ	3
fsr	equ	4
fsr0	equ	4
c	equ	1
z	equ	0
pclath	equ	10
	FNROOT	_main
	global	_PORTB
psect	maintext,global,class=CODE,delta=2
global __pmaintext
__pmaintext:
_PORTB	set	6
	global	_CARRY
_CARRY	set	24
	global	_GIE
_GIE	set	95
	global	_TRISB
_TRISB	set	134
	global	_EEADR
_EEADR	set	269
	global	_EEDATA
_EEDATA	set	268
	global	_EECON1
_EECON1	set	396
	global	_EECON2
_EECON2	set	397
	global	_RD
_RD	set	3168
	global	_WR
_WR	set	3169
	global	_WREN
_WREN	set	3170
	file	"Base.as"
	line	#
psect cinit,class=CODE,delta=2
global start_initialization
start_initialization:

psect cinit,class=CODE,delta=2
global end_of_initialization

;End of C runtime variable initialization code

end_of_initialization:
clrf status
ljmp _main	;jump to C main() function
psect	cstackCOMMON,class=COMMON,space=1
global __pcstackCOMMON
__pcstackCOMMON:
	global	?_main
?_main:	; 0 bytes @ 0x0
	global	??_main
??_main:	; 0 bytes @ 0x0
	ds	3
;;Data sizes: Strings 0, constant 0, data 0, bss 0, persistent 0 stack 0
;;Auto spaces:   Size  Autos    Used
;; COMMON          14      3       3
;; BANK0           80      0       0
;; BANK1           80      0       0
;; BANK3           96      0       0
;; BANK2           96      0       0

;;
;; Pointer list with targets:



;;
;; Critical Paths under _main in COMMON
;;
;;   None.
;;
;; Critical Paths under _main in BANK0
;;
;;   None.
;;
;; Critical Paths under _main in BANK1
;;
;;   None.
;;
;; Critical Paths under _main in BANK3
;;
;;   None.
;;
;; Critical Paths under _main in BANK2
;;
;;   None.

;;
;;Main: autosize = 0, tempsize = 3, incstack = 0, save=0
;;

;;
;;Call Graph Tables:
;;
;; ---------------------------------------------------------------------------------
;; (Depth) Function   	        Calls       Base Space   Used Autos Params    Refs
;; ---------------------------------------------------------------------------------
;; (0) _main                                                 3     3      0       0
;;                                              0 COMMON     3     3      0
;; ---------------------------------------------------------------------------------
;; Estimated maximum stack depth 0
;; ---------------------------------------------------------------------------------

;; Call Graph Graphs:

;; _main (ROOT)
;;

;; Address spaces:

;;Name               Size   Autos  Total    Cost      Usage
;;BITCOMMON            E      0       0       0        0.0%
;;EEDATA             100      0       0       0        0.0%
;;NULL                 0      0       0       0        0.0%
;;CODE                 0      0       0       0        0.0%
;;COMMON               E      3       3       1       21.4%
;;BITSFR0              0      0       0       1        0.0%
;;SFR0                 0      0       0       1        0.0%
;;BITSFR1              0      0       0       2        0.0%
;;SFR1                 0      0       0       2        0.0%
;;STACK                0      0       0       2        0.0%
;;ABS                  0      0       0       3        0.0%
;;BITBANK0            50      0       0       4        0.0%
;;BITSFR3              0      0       0       4        0.0%
;;SFR3                 0      0       0       4        0.0%
;;BANK0               50      0       0       5        0.0%
;;BITSFR2              0      0       0       5        0.0%
;;SFR2                 0      0       0       5        0.0%
;;BITBANK1            50      0       0       6        0.0%
;;BANK1               50      0       0       7        0.0%
;;BITBANK3            60      0       0       8        0.0%
;;BANK3               60      0       0       9        0.0%
;;BITBANK2            60      0       0      10        0.0%
;;BANK2               60      0       0      11        0.0%
;;DATA                 0      0       0      12        0.0%

	global	_main
psect	maintext

;; *************** function _main *****************
;; Defined at:
;;		line 4 in file "C:\Users\ANGICIA\Desktop\04.BitShift\main.c"
;; Parameters:    Size  Location     Type
;;		None
;; Auto vars:     Size  Location     Type
;;		None
;; Return value:  Size  Location     Type
;;		None               void
;; Registers used:
;;		wreg, status,2
;; Tracked objects:
;;		On entry : 17F/0
;;		On exit  : 0/0
;;		Unchanged: 0/0
;; Data sizes:     COMMON   BANK0   BANK1   BANK3   BANK2
;;      Params:         0       0       0       0       0
;;      Locals:         0       0       0       0       0
;;      Temps:          3       0       0       0       0
;;      Totals:         3       0       0       0       0
;;Total ram usage:        3 bytes
;; This function calls:
;;		Nothing
;; This function is called by:
;;		Startup code after reset
;; This function uses a non-reentrant model
;;
psect	maintext
	file	"C:\Users\ANGICIA\Desktop\04.BitShift\main.c"
	line	4
	global	__size_of_main
	__size_of_main	equ	__end_of_main-_main
	
_main:	
	opt	stack 8
; Regs used in _main: [wreg+status,2]
	line	5
	
l2595:	
;main.c: 5: TRISB =0X00;
	bsf	status, 5	;RP0=1, select bank1
	bcf	status, 6	;RP1=0, select bank1
	clrf	(134)^080h	;volatile
	line	6
	
l2597:	
;main.c: 6: PORTB=0X03;
	movlw	(03h)
	bcf	status, 5	;RP0=0, select bank0
	bcf	status, 6	;RP1=0, select bank0
	movwf	(6)	;volatile
	goto	l2599
	line	7
;main.c: 7: while(1)
	
l687:	
	line	9
	
l2599:	
;main.c: 8: {
;main.c: 9: PORTB=1<<1;
	movlw	(02h)
	bcf	status, 5	;RP0=0, select bank0
	bcf	status, 6	;RP1=0, select bank0
	movwf	(6)	;volatile
	line	10
	
l2601:	
;main.c: 10: _delay((unsigned long)((1000)*(8000000/4000.0)));
	opt asmopt_off
movlw  11
movwf	((??_main+0)+0+2),f
movlw	38
movwf	((??_main+0)+0+1),f
	movlw	102
movwf	((??_main+0)+0),f
u2227:
	decfsz	((??_main+0)+0),f
	goto	u2227
	decfsz	((??_main+0)+0+1),f
	goto	u2227
	decfsz	((??_main+0)+0+2),f
	goto	u2227
	nop2
opt asmopt_on

	line	11
	
l2603:	
;main.c: 11: PORTB=0X00;
	bcf	status, 5	;RP0=0, select bank0
	bcf	status, 6	;RP1=0, select bank0
	clrf	(6)	;volatile
	line	12
;main.c: 12: _delay((unsigned long)((1000)*(8000000/4000.0)));
	opt asmopt_off
movlw  11
movwf	((??_main+0)+0+2),f
movlw	38
movwf	((??_main+0)+0+1),f
	movlw	102
movwf	((??_main+0)+0),f
u2237:
	decfsz	((??_main+0)+0),f
	goto	u2237
	decfsz	((??_main+0)+0+1),f
	goto	u2237
	decfsz	((??_main+0)+0+2),f
	goto	u2237
	nop2
opt asmopt_on

	line	13
;main.c: 13: PORTB=1<<2;
	movlw	(04h)
	bcf	status, 5	;RP0=0, select bank0
	bcf	status, 6	;RP1=0, select bank0
	movwf	(6)	;volatile
	line	14
;main.c: 14: _delay((unsigned long)((1000)*(8000000/4000.0)));
	opt asmopt_off
movlw  11
movwf	((??_main+0)+0+2),f
movlw	38
movwf	((??_main+0)+0+1),f
	movlw	102
movwf	((??_main+0)+0),f
u2247:
	decfsz	((??_main+0)+0),f
	goto	u2247
	decfsz	((??_main+0)+0+1),f
	goto	u2247
	decfsz	((??_main+0)+0+2),f
	goto	u2247
	nop2
opt asmopt_on

	line	15
	
l2605:	
;main.c: 15: PORTB=0X00;
	bcf	status, 5	;RP0=0, select bank0
	bcf	status, 6	;RP1=0, select bank0
	clrf	(6)	;volatile
	line	16
	
l2607:	
;main.c: 16: _delay((unsigned long)((1000)*(8000000/4000.0)));
	opt asmopt_off
movlw  11
movwf	((??_main+0)+0+2),f
movlw	38
movwf	((??_main+0)+0+1),f
	movlw	102
movwf	((??_main+0)+0),f
u2257:
	decfsz	((??_main+0)+0),f
	goto	u2257
	decfsz	((??_main+0)+0+1),f
	goto	u2257
	decfsz	((??_main+0)+0+2),f
	goto	u2257
	nop2
opt asmopt_on

	goto	l2599
	line	17
	
l688:	
	line	7
	goto	l2599
	
l689:	
	line	18
	
l690:	
	global	start
	ljmp	start
	opt stack 0
GLOBAL	__end_of_main
	__end_of_main:
;; =============== function _main ends ============

	signat	_main,88
psect	maintext
	global	btemp
	btemp set 07Eh

	DABS	1,126,2	;btemp
	global	wtemp0
	wtemp0 set btemp
	end
